target datalayout = "e-m:e-p270:32:32-p271:32:32-p272:64:64-i64:64-i128:128-f80:128-n8:16:32:64-S128"
target triple = "x86_64-pc-linux-gnu"

%struct.expert_field = type { i32, i32 }
%struct.MessageHeader = type { [4 x i8], %struct.Version, i8, i8, i32, i32, i32, ptr }
%struct.Version = type { i8, i8 }

@hf_GIAS_AccessManager_set_availability_products_loop = internal global i32 0, align 4
@hf_GIAS_AccessManager_set_availability_availability_requirement = internal global i32 0, align 4
@hf_GIAS_AccessManager_set_availability_use_mode = internal global i32 0, align 4
@hf_GIAS_AccessManager_set_availability_priority = internal global i32 0, align 4
@ei_gias_unknown_giop_msg = internal global %struct.expert_field zeroinitializer, align 4
@ei_gias_unknown_exception = internal global %struct.expert_field zeroinitializer, align 4
@ett_giop_sequence = internal global i32 0, align 4
@boundary = internal global i32 12, align 4
@.str.826 = private unnamed_addr constant [21 x i8] c"Unknown exception %d\00", align 1
@.str.827 = private unnamed_addr constant [24 x i8] c"Unknown GIOP message %d\00", align 1
@.str.957 = private unnamed_addr constant [54 x i8] c"sequence GIAS_AccessManager_set_availability_products\00", align 1

; Function Attrs: null_pointer_is_valid sspstrong uwtable
define internal void @decode_GIAS_AccessManager_set_availability(ptr noundef %0, ptr noundef %1, ptr noundef %2, ptr noundef %3, ptr noundef %4, ptr noundef %5, ptr noundef %6, i1 noundef zeroext %7) #0 {
  %9 = alloca ptr, align 8
  %10 = alloca ptr, align 8
  %11 = alloca ptr, align 8
  %12 = alloca ptr, align 8
  %13 = alloca ptr, align 8
  %14 = alloca ptr, align 8
  %15 = alloca ptr, align 8
  %16 = alloca i8, align 1
  %17 = alloca i32, align 4
  %18 = alloca i32, align 4
  %19 = alloca i32, align 4
  %20 = alloca ptr, align 8
  store ptr %0, ptr %9, align 8
  store ptr %1, ptr %10, align 8
  store ptr %2, ptr %11, align 8
  store ptr %3, ptr %12, align 8
  store ptr %4, ptr %13, align 8
  store ptr %5, ptr %14, align 8
  store ptr %6, ptr %15, align 8
  %21 = zext i1 %7 to i8
  store i8 %21, ptr %16, align 1
  call void @llvm.lifetime.start.p0(i64 4, ptr %17) #6
  call void @llvm.lifetime.start.p0(i64 4, ptr %18) #6
  call void @llvm.lifetime.start.p0(i64 4, ptr %19) #6
  %22 = load ptr, ptr %14, align 8
  %23 = getelementptr inbounds nuw %struct.MessageHeader, ptr %22, i32 0, i32 3
  %24 = load i8, ptr %23, align 1
  %25 = zext i8 %24 to i32
  switch i32 %25, label %120 [
    i32 0, label %26
    i32 1, label %100
  ]

26:                                               ; preds = %8
  %27 = load ptr, ptr %9, align 8
  %28 = load ptr, ptr %13, align 8
  %29 = load i8, ptr %16, align 1, !range !6, !noundef !7
  %30 = trunc i8 %29 to i1
  %31 = load i32, ptr @boundary, align 4
  %32 = call i32 @get_CDR_ulong(ptr noundef %27, ptr noundef %28, i1 noundef zeroext %30, i32 noundef %31)
  store i32 %32, ptr %17, align 4
  %33 = load ptr, ptr %11, align 8
  %34 = load i32, ptr @hf_GIAS_AccessManager_set_availability_products_loop, align 4
  %35 = load ptr, ptr %9, align 8
  %36 = load ptr, ptr %13, align 8
  %37 = load i32, ptr %36, align 4
  %38 = sub i32 %37, 4
  %39 = load i32, ptr %17, align 4
  %40 = call ptr @proto_tree_add_uint(ptr noundef %33, i32 noundef %34, ptr noundef %35, i32 noundef %38, i32 noundef 4, i32 noundef %39)
  call void @llvm.lifetime.start.p0(i64 8, ptr %20) #6
  %41 = load ptr, ptr %11, align 8
  store ptr %41, ptr %20, align 8
  %42 = load ptr, ptr %11, align 8
  %43 = load ptr, ptr %9, align 8
  %44 = load ptr, ptr %13, align 8
  %45 = load i32, ptr %44, align 4
  %46 = load i32, ptr @ett_giop_sequence, align 4
  %47 = call ptr @proto_tree_add_subtree(ptr noundef %42, ptr noundef %43, i32 noundef %45, i32 noundef -1, i32 noundef %46, ptr noundef null, ptr noundef @.str.957)
  store ptr %47, ptr %11, align 8
  store i32 0, ptr %18, align 4
  br label %48

48:                                               ; preds = %60, %26
  %49 = load i32, ptr %18, align 4
  %50 = load i32, ptr %17, align 4
  %51 = icmp ult i32 %49, %50
  br i1 %51, label %52, label %63

52:                                               ; preds = %48
  %53 = load ptr, ptr %9, align 8
  %54 = load ptr, ptr %10, align 8
  %55 = load ptr, ptr %11, align 8
  %56 = load ptr, ptr %13, align 8
  %57 = load i8, ptr %16, align 1, !range !6, !noundef !7
  %58 = trunc i8 %57 to i1
  %59 = load i32, ptr @boundary, align 4
  call void @get_CDR_object(ptr noundef %53, ptr noundef %54, ptr noundef %55, ptr noundef %56, i1 noundef zeroext %58, i32 noundef %59)
  br label %60

60:                                               ; preds = %52
  %61 = load i32, ptr %18, align 4
  %62 = add i32 %61, 1
  store i32 %62, ptr %18, align 4
  br label %48, !llvm.loop !65

63:                                               ; preds = %48
  %64 = load ptr, ptr %20, align 8
  store ptr %64, ptr %11, align 8
  call void @llvm.lifetime.end.p0(i64 8, ptr %20) #6
  %65 = load ptr, ptr %9, align 8
  %66 = load ptr, ptr %13, align 8
  %67 = load i8, ptr %16, align 1, !range !6, !noundef !7
  %68 = trunc i8 %67 to i1
  %69 = load i32, ptr @boundary, align 4
  %70 = call i32 @get_CDR_enum(ptr noundef %65, ptr noundef %66, i1 noundef zeroext %68, i32 noundef %69)
  store i32 %70, ptr %19, align 4
  %71 = load ptr, ptr %11, align 8
  %72 = load i32, ptr @hf_GIAS_AccessManager_set_availability_availability_requirement, align 4
  %73 = load ptr, ptr %9, align 8
  %74 = load ptr, ptr %13, align 8
  %75 = load i32, ptr %74, align 4
  %76 = sub i32 %75, 4
  %77 = load i32, ptr %19, align 4
  %78 = call ptr @proto_tree_add_uint(ptr noundef %71, i32 noundef %72, ptr noundef %73, i32 noundef %76, i32 noundef 4, i32 noundef %77)
  %79 = load ptr, ptr %11, align 8
  %80 = load ptr, ptr %9, align 8
  %81 = load ptr, ptr %13, align 8
  %82 = load i8, ptr %16, align 1, !range !6, !noundef !7
  %83 = trunc i8 %82 to i1
  %84 = load i32, ptr @boundary, align 4
  %85 = load i32, ptr @hf_GIAS_AccessManager_set_availability_use_mode, align 4
  call void @giop_add_CDR_string(ptr noundef %79, ptr noundef %80, ptr noundef %81, i1 noundef zeroext %83, i32 noundef %84, i32 noundef %85)
  %86 = load ptr, ptr %11, align 8
  %87 = load i32, ptr @hf_GIAS_AccessManager_set_availability_priority, align 4
  %88 = load ptr, ptr %9, align 8
  %89 = load ptr, ptr %13, align 8
  %90 = load i32, ptr %89, align 4
  %91 = sub i32 %90, 2
  %92 = load ptr, ptr %9, align 8
  %93 = load ptr, ptr %13, align 8
  %94 = load i8, ptr %16, align 1, !range !6, !noundef !7
  %95 = trunc i8 %94 to i1
  %96 = load i32, ptr @boundary, align 4
  %97 = call signext i16 @get_CDR_short(ptr noundef %92, ptr noundef %93, i1 noundef zeroext %95, i32 noundef %96)
  %98 = sext i16 %97 to i32
  %99 = call ptr @proto_tree_add_int(ptr noundef %86, i32 noundef %87, ptr noundef %88, i32 noundef %91, i32 noundef 2, i32 noundef %98)
  br label %128

100:                                              ; preds = %8
  %101 = load ptr, ptr %14, align 8
  %102 = getelementptr inbounds nuw %struct.MessageHeader, ptr %101, i32 0, i32 6
  %103 = load i32, ptr %102, align 8
  switch i32 %103, label %112 [
    i32 0, label %104
    i32 1, label %119
  ]

104:                                              ; preds = %100
  %105 = load ptr, ptr %9, align 8
  %106 = load ptr, ptr %10, align 8
  %107 = load ptr, ptr %11, align 8
  %108 = load ptr, ptr %13, align 8
  %109 = load i8, ptr %16, align 1, !range !6, !noundef !7
  %110 = trunc i8 %109 to i1
  %111 = load i32, ptr @boundary, align 4
  call void @get_CDR_object(ptr noundef %105, ptr noundef %106, ptr noundef %107, ptr noundef %108, i1 noundef zeroext %110, i32 noundef %111)
  br label %119

112:                                              ; preds = %100
  %113 = load ptr, ptr %10, align 8
  %114 = load ptr, ptr %12, align 8
  %115 = load ptr, ptr %14, align 8
  %116 = getelementptr inbounds nuw %struct.MessageHeader, ptr %115, i32 0, i32 6
  %117 = load i32, ptr %116, align 8
  %118 = call ptr (ptr, ptr, ptr, ptr, ...) @expert_add_info_format(ptr noundef %113, ptr noundef %114, ptr noundef @ei_gias_unknown_exception, ptr noundef @.str.826, i32 noundef %117)
  br label %119

119:                                              ; preds = %112, %100, %104
  br label %128

120:                                              ; preds = %8
  %121 = load ptr, ptr %10, align 8
  %122 = load ptr, ptr %12, align 8
  %123 = load ptr, ptr %14, align 8
  %124 = getelementptr inbounds nuw %struct.MessageHeader, ptr %123, i32 0, i32 3
  %125 = load i8, ptr %124, align 1
  %126 = zext i8 %125 to i32
  %127 = call ptr (ptr, ptr, ptr, ptr, ...) @expert_add_info_format(ptr noundef %121, ptr noundef %122, ptr noundef @ei_gias_unknown_giop_msg, ptr noundef @.str.827, i32 noundef %126)
  br label %128

128:                                              ; preds = %120, %119, %63
  call void @llvm.lifetime.end.p0(i64 4, ptr %19) #6
  call void @llvm.lifetime.end.p0(i64 4, ptr %18) #6
  call void @llvm.lifetime.end.p0(i64 4, ptr %17) #6
  ret void
}