; Function Attrs: null_pointer_is_valid sspstrong uwtable
define internal fastcc void @decode_GIAS_AccessManager_set_availability(ptr noundef %0, ptr noundef %1, ptr noundef %2, ptr noundef %3, ptr noundef %4, ptr noundef readonly captures(none) %5, i1 noundef zeroext %6) unnamed_addr #0 {
  %8 = getelementptr inbounds nuw i8, ptr %5, i64 7
  %9 = load i8, ptr %8, align 1
  switch i8 %9, label %38 [
    i8 0, label %10
    i8 1, label %32
  ]

10:                                               ; preds = %7
  %11 = tail call i32 @get_CDR_ulong(ptr noundef %0, ptr noundef %4, i1 noundef zeroext %6, i32 noundef 12)
  %12 = load i32, ptr @hf_GIAS_AccessManager_set_availability_products_loop, align 4
  %13 = load i32, ptr %4, align 4
  %14 = add i32 %13, -4
  %15 = tail call ptr @proto_tree_add_uint(ptr noundef %2, i32 noundef %12, ptr noundef %0, i32 noundef %14, i32 noundef 4, i32 noundef %11)
  %16 = load i32, ptr %4, align 4
  %17 = load i32, ptr @ett_giop_sequence, align 4
  %18 = tail call ptr @proto_tree_add_subtree(ptr noundef %2, ptr noundef %0, i32 noundef %16, i32 noundef -1, i32 noundef %17, ptr noundef null, ptr noundef nonnull @.str.957)
  %.not = icmp eq i32 %11, 0
  br i1 %.not, label %._crit_edge, label %.lr.ph

.lr.ph:                                           ; preds = %10, %.lr.ph
  %.01 = phi i32 [ %19, %.lr.ph ], [ 0, %10 ]
  tail call void @get_CDR_object(ptr noundef %0, ptr noundef %1, ptr noundef %18, ptr noundef %4, i1 noundef zeroext %6, i32 noundef 12)
  %19 = add nuw i32 %.01, 1
  %exitcond.not = icmp eq i32 %19, %11
  br i1 %exitcond.not, label %._crit_edge, label %.lr.ph, !llvm.loop !70

._crit_edge:                                      ; preds = %.lr.ph, %10
  %20 = tail call i32 @get_CDR_enum(ptr noundef %0, ptr noundef %4, i1 noundef zeroext %6, i32 noundef 12)
  %21 = load i32, ptr @hf_GIAS_AccessManager_set_availability_availability_requirement, align 4
  %22 = load i32, ptr %4, align 4
  %23 = add i32 %22, -4
  %24 = tail call ptr @proto_tree_add_uint(ptr noundef %2, i32 noundef %21, ptr noundef %0, i32 noundef %23, i32 noundef 4, i32 noundef %20)
  %25 = load i32, ptr @hf_GIAS_AccessManager_set_availability_use_mode, align 4
  tail call void @giop_add_CDR_string(ptr noundef %2, ptr noundef %0, ptr noundef %4, i1 noundef zeroext %6, i32 noundef 12, i32 noundef %25)
  %26 = load i32, ptr @hf_GIAS_AccessManager_set_availability_priority, align 4
  %27 = load i32, ptr %4, align 4
  %28 = add i32 %27, -2
  %29 = tail call signext i16 @get_CDR_short(ptr noundef %0, ptr noundef %4, i1 noundef zeroext %6, i32 noundef 12)
  %30 = sext i16 %29 to i32
  %31 = tail call ptr @proto_tree_add_int(ptr noundef %2, i32 noundef %26, ptr noundef %0, i32 noundef %28, i32 noundef 2, i32 noundef %30)
  br label %41

32:                                               ; preds = %7
  %33 = getelementptr inbounds nuw i8, ptr %5, i64 16
  %34 = load i32, ptr %33, align 8
  switch i32 %34, label %36 [
    i32 0, label %35
    i32 1, label %41
  ]

35:                                               ; preds = %32
  tail call void @get_CDR_object(ptr noundef %0, ptr noundef %1, ptr noundef %2, ptr noundef %4, i1 noundef zeroext %6, i32 noundef 12)
  br label %41

36:                                               ; preds = %32
  %37 = tail call ptr (ptr, ptr, ptr, ptr, ...) @expert_add_info_format(ptr noundef %1, ptr noundef %3, ptr noundef nonnull @ei_gias_unknown_exception, ptr noundef nonnull @.str.826, i32 noundef %34)
  br label %41

38:                                               ; preds = %7
  %39 = zext i8 %9 to i32
  %40 = tail call ptr (ptr, ptr, ptr, ptr, ...) @expert_add_info_format(ptr noundef %1, ptr noundef %3, ptr noundef nonnull @ei_gias_unknown_giop_msg, ptr noundef nonnull @.str.827, i32 noundef %39)
  br label %41

41:                                               ; preds = %32, %35, %36, %38, %._crit_edge
  ret void
}